target datalayout = "e-m:e-p270:32:32-p271:32:32-p272:64:64-i64:64-i128:128-f80:128-n8:16:32:64-S128"
target triple = "x86_64-pc-linux-gnu"

%struct.tmpi_errhandler_ = type { i32, ptr }

@stderr = external global ptr, align 8
@.str.1 = private unnamed_addr constant [36 x i8] c"tMPI fatal error (%s), bailing out\0A\00", align 1

; Function Attrs: mustprogress nounwind uwtable
define noundef i32 @_Z22tMPI_Create_errhandlerPPFvPP10tmpi_comm_PiEPP16tmpi_errhandler_(ptr noundef %0, ptr noundef %1) #0 {
  %3 = alloca ptr, align 8
  %4 = alloca ptr, align 8
  store ptr %0, ptr %3, align 8
  store ptr %1, ptr %4, align 8
  %5 = call noalias ptr @malloc(i64 noundef 16) #11
  %6 = load ptr, ptr %4, align 8
  store ptr %5, ptr %6, align 8
  %7 = load ptr, ptr %4, align 8
  %8 = load ptr, ptr %7, align 8
  %9 = icmp ne ptr %8, null
  br i1 %9, label %14, label %10

10:                                               ; preds = %2
  %11 = load ptr, ptr @stderr, align 8
  %12 = load ptr, ptr getelementptr inbounds ([28 x ptr], ptr @_ZL11tmpi_errmsg, i64 0, i64 1), align 8
  %13 = call i32 (ptr, ptr, ...) @fprintf(ptr noundef %11, ptr noundef @.str.1, ptr noundef %12) #7
  call void @abort() #8
  unreachable

14:                                               ; preds = %2
  %15 = load ptr, ptr %4, align 8
  %16 = load ptr, ptr %15, align 8
  %17 = getelementptr inbounds %struct.tmpi_errhandler_, ptr %16, i32 0, i32 0
  store i32 0, ptr %17, align 8
  %18 = load ptr, ptr %3, align 8
  %19 = load ptr, ptr %18, align 8
  %20 = load ptr, ptr %4, align 8
  %21 = load ptr, ptr %20, align 8
  %22 = getelementptr inbounds %struct.tmpi_errhandler_, ptr %21, i32 0, i32 1
  store ptr %19, ptr %22, align 8
  ret i32 0
}