; Function Attrs: mustprogress nounwind uwtable
define noundef i32 @_Z22tMPI_Create_errhandlerPPFvPP10tmpi_comm_PiEPP16tmpi_errhandler_(ptr nocapture noundef readonly %0, ptr nocapture noundef writeonly %1) local_unnamed_addr #1 {
  %3 = tail call noalias dereferenceable_or_null(16) ptr @malloc(i64 noundef 16) #21
  store ptr %3, ptr %1, align 8
  %.not = icmp eq ptr %3, null
  br i1 %.not, label %4, label %7

4:                                                ; preds = %2
  %5 = load ptr, ptr @stderr, align 8
  %6 = tail call i32 (ptr, ptr, ...) @fprintf(ptr noundef %5, ptr noundef nonnull @.str.1, ptr noundef nonnull @.str.5) #18
  tail call void @abort() #19
  unreachable

7:                                                ; preds = %2
  store i32 0, ptr %3, align 8
  %8 = load ptr, ptr %0, align 8
  %9 = getelementptr inbounds i8, ptr %3, i64 8
  store ptr %8, ptr %9, align 8
  ret i32 0
}